; Function Attrs: mustprogress nofree norecurse nosync nounwind willreturn memory(argmem: write) uwtable
define internal range(i32 0, 2) i32 @xor_init(ptr noundef writeonly captures(address_is_null) %0, ptr noundef %1, ptr readnone captures(none) %2) #3 {
  %4 = icmp eq ptr %0, null
  %5 = icmp eq ptr %1, null
  %or.cond = or i1 %4, %5
  br i1 %or.cond, label %7, label %6

6:                                                ; preds = %3
  store ptr %1, ptr %0, align 8, !tbaa !54
  br label %7

7:                                                ; preds = %3, %6
  %.0 = phi i32 [ 1, %6 ], [ 0, %3 ]
  ret i32 %.0
}